target datalayout = "e-m:e-p270:32:32-p271:32:32-p272:64:64-i64:64-i128:128-f80:128-n8:16:32:64-S128"
target triple = "x86_64-pc-linux-gnu"

@proto_register_corosync_totemnet.ett_corosync_totemnet = internal global [1 x ptr] [ptr @ett_corosync_totemnet_security_header], align 8
@.str.8 = private unnamed_addr constant [42 x i8] c"Totemnet Layer of Corosync Cluster Engine\00", align 1
@.str.9 = private unnamed_addr constant [18 x i8] c"COROSYNC/TOTEMNET\00", align 1
@.str.10 = private unnamed_addr constant [18 x i8] c"corosync_totemnet\00", align 1
@proto_corosync_totemnet = internal global i32 0, align 4
@.str.11 = private unnamed_addr constant [13 x i8] c"private_keys\00", align 1
@.str.12 = private unnamed_addr constant [13 x i8] c"Private keys\00", align 1
@.str.13 = private unnamed_addr constant [68 x i8] c"Semicolon-separated  list of keys for decryption(e.g. key1;key2;...\00", align 1
@corosync_totemnet_private_keys = internal global ptr null, align 8
@corosync_totemnet_handle = internal global ptr null, align 8

; Function Attrs: null_pointer_is_valid sspstrong uwtable
define hidden void @proto_register_corosync_totemnet() #0 {
  %1 = alloca ptr, align 8
  call void @llvm.lifetime.start.p0(i64 8, ptr %1) #9
  %2 = call i32 @proto_register_protocol(ptr noundef @.str.8, ptr noundef @.str.9, ptr noundef @.str.10)
  store i32 %2, ptr @proto_corosync_totemnet, align 4
  %3 = load i32, ptr @proto_corosync_totemnet, align 4
  call void @proto_register_field_array(i32 noundef %3, ptr noundef @proto_register_corosync_totemnet.hf, i32 noundef 4)
  call void @proto_register_subtree_array(ptr noundef @proto_register_corosync_totemnet.ett_corosync_totemnet, i32 noundef 1)
  %4 = load i32, ptr @proto_corosync_totemnet, align 4
  %5 = call ptr @prefs_register_protocol(i32 noundef %4, ptr noundef @proto_reg_handoff_corosync_totemnet)
  store ptr %5, ptr %1, align 8
  %6 = load ptr, ptr %1, align 8
  call void @prefs_register_string_preference(ptr noundef %6, ptr noundef @.str.11, ptr noundef @.str.12, ptr noundef @.str.13, ptr noundef @corosync_totemnet_private_keys)
  call void @register_shutdown_routine(ptr noundef @corosync_totemnet_shutdown)
  %7 = load i32, ptr @proto_corosync_totemnet, align 4
  %8 = call ptr @register_dissector(ptr noundef @.str.10, ptr noundef @dissect_corosynec_totemnet, i32 noundef %7)
  store ptr %8, ptr @corosync_totemnet_handle, align 8
  call void @llvm.lifetime.end.p0(i64 8, ptr %1) #9
  ret void
}