; Function Attrs: null_pointer_is_valid sspstrong uwtable
define hidden void @proto_register_corosync_totemnet() local_unnamed_addr #0 {
  %1 = tail call i32 @proto_register_protocol(ptr noundef nonnull @.str.8, ptr noundef nonnull @.str.9, ptr noundef nonnull @.str.10)
  store i32 %1, ptr @proto_corosync_totemnet, align 4
  tail call void @proto_register_field_array(i32 noundef %1, ptr noundef nonnull @proto_register_corosync_totemnet.hf, i32 noundef 4)
  tail call void @proto_register_subtree_array(ptr noundef nonnull @proto_register_corosync_totemnet.ett_corosync_totemnet, i32 noundef 1)
  %2 = load i32, ptr @proto_corosync_totemnet, align 4
  %3 = tail call ptr @prefs_register_protocol(i32 noundef %2, ptr noundef nonnull @proto_reg_handoff_corosync_totemnet)
  tail call void @prefs_register_string_preference(ptr noundef %3, ptr noundef nonnull @.str.11, ptr noundef nonnull @.str.12, ptr noundef nonnull @.str.13, ptr noundef nonnull @corosync_totemnet_private_keys)
  tail call void @register_shutdown_routine(ptr noundef nonnull @corosync_totemnet_shutdown)
  %4 = load i32, ptr @proto_corosync_totemnet, align 4
  %5 = tail call ptr @register_dissector(ptr noundef nonnull @.str.10, ptr noundef nonnull @dissect_corosynec_totemnet, i32 noundef %4)
  store ptr %5, ptr @corosync_totemnet_handle, align 8
  ret void
}